target datalayout = "e-m:e-p270:32:32-p271:32:32-p272:64:64-i64:64-i128:128-f80:128-n8:16:32:64-S128"
target triple = "x86_64-pc-linux-gnu"

%class.ZStatValue = type { ptr, ptr, i32, i32 }
%class.ZStatSampler = type { %class.ZStatIterableValue, ptr }
%class.ZStatIterableValue = type { %class.ZStatValue, ptr }
%class.ZStatPhase = type { ptr, %class.ZStatSampler }
%class.ZStatPhaseCollection = type <{ %class.ZStatPhase, i8, [7 x i8] }>

; Function Attrs: mustprogress nounwind uwtable
define hidden void @_ZNK20ZStatPhaseCollection17set_used_at_startEm(ptr noundef nonnull align 8 dereferenceable(49) %0, i64 noundef %1) #1 align 2 {
  %3 = alloca ptr, align 8
  %4 = alloca i64, align 8
  store ptr %0, ptr %3, align 8
  store i64 %1, ptr %4, align 8
  %5 = load ptr, ptr %3, align 8
  %6 = getelementptr inbounds %class.ZStatPhaseCollection, ptr %5, i32 0, i32 1
  %7 = load i8, ptr %6, align 8
  %8 = trunc i8 %7 to i1
  br i1 %8, label %9, label %12

9:                                                ; preds = %2
  %10 = call noundef ptr @_ZN7ZDriver5minorEv()
  %11 = load i64, ptr %4, align 8
  call void @_ZN12ZDriverMinor17set_used_at_startEm(ptr noundef nonnull align 8 dereferenceable(1264) %10, i64 noundef %11)
  br label %15

12:                                               ; preds = %2
  %13 = call noundef ptr @_ZN7ZDriver5majorEv()
  %14 = load i64, ptr %4, align 8
  call void @_ZN12ZDriverMajor17set_used_at_startEm(ptr noundef nonnull align 8 dereferenceable(1264) %13, i64 noundef %14)
  br label %15

15:                                               ; preds = %12, %9
  ret void
}