; Function Attrs: mustprogress nounwind uwtable
define hidden void @_ZNK20ZStatPhaseCollection17set_used_at_startEm(ptr nocapture noundef nonnull readonly align 8 dereferenceable(49) %0, i64 noundef %1) local_unnamed_addr #0 align 2 {
  %3 = getelementptr inbounds i8, ptr %0, i64 48
  %4 = load i8, ptr %3, align 8
  %5 = trunc i8 %4 to i1
  br i1 %5, label %6, label %8

6:                                                ; preds = %2
  %7 = tail call noundef ptr @_ZN7ZDriver5minorEv() #20
  tail call void @_ZN12ZDriverMinor17set_used_at_startEm(ptr noundef nonnull align 8 dereferenceable(1264) %7, i64 noundef %1) #20
  br label %10

8:                                                ; preds = %2
  %9 = tail call noundef ptr @_ZN7ZDriver5majorEv() #20
  tail call void @_ZN12ZDriverMajor17set_used_at_startEm(ptr noundef nonnull align 8 dereferenceable(1264) %9, i64 noundef %1) #20
  br label %10

10:                                               ; preds = %8, %6
  ret void
}